; Function Attrs: mustprogress uwtable
define noundef zeroext i1 @_ZNK6icu_776number4impl21ConstantAffixModifier12strictEqualsERKNS1_8ModifierE(ptr noundef nonnull align 8 dereferenceable(146) %0, ptr noundef nonnull align 8 dereferenceable(8) %1) unnamed_addr #4 align 2 {
  %3 = tail call ptr @__dynamic_cast(ptr nonnull %1, ptr nonnull @_ZTIN6icu_776number4impl8ModifierE, ptr nonnull @_ZTIN6icu_776number4impl21ConstantAffixModifierE, i64 0) #19
  %4 = icmp eq ptr %3, null
  br i1 %4, label %_ZNK6icu_7713UnicodeStringeqERKS0_.exit.thread, label %5

5:                                                ; preds = %2
  %6 = getelementptr inbounds nuw i8, ptr %0, i64 16
  %7 = getelementptr inbounds nuw i8, ptr %0, i64 24
  %8 = load i16, ptr %7, align 8, !tbaa !21
  %9 = and i16 %8, 1
  %.not.i = icmp eq i16 %9, 0
  br i1 %.not.i, label %14, label %10

10:                                               ; preds = %5
  %11 = getelementptr inbounds nuw i8, ptr %3, i64 24
  %12 = load i16, ptr %11, align 8, !tbaa !21
  %13 = and i16 %12, 1
  %.not = icmp eq i16 %13, 0
  br i1 %.not, label %_ZNK6icu_7713UnicodeStringeqERKS0_.exit.thread, label %37

14:                                               ; preds = %5
  %15 = icmp slt i16 %8, 0
  %16 = ashr i16 %8, 5
  %17 = sext i16 %16 to i32
  %18 = getelementptr inbounds nuw i8, ptr %0, i64 28
  %19 = load i32, ptr %18, align 4
  %20 = select i1 %15, i32 %19, i32 %17
  %21 = getelementptr inbounds nuw i8, ptr %3, i64 24
  %22 = load i16, ptr %21, align 8, !tbaa !21
  %23 = icmp slt i16 %22, 0
  %24 = ashr i16 %22, 5
  %25 = sext i16 %24 to i32
  %26 = getelementptr inbounds nuw i8, ptr %3, i64 28
  %27 = load i32, ptr %26, align 4
  %28 = select i1 %23, i32 %27, i32 %25
  %29 = and i16 %22, 1
  %.not9.i = icmp eq i16 %29, 0
  %30 = icmp eq i32 %20, %28
  %or.cond.i = and i1 %.not9.i, %30
  br i1 %or.cond.i, label %_ZNK6icu_7713UnicodeStringeqERKS0_.exit, label %_ZNK6icu_7713UnicodeStringeqERKS0_.exit.thread

_ZNK6icu_7713UnicodeStringeqERKS0_.exit:          ; preds = %14
  %31 = and i16 %22, 2
  %.not.i.i.i = icmp eq i16 %31, 0
  %32 = getelementptr inbounds nuw i8, ptr %3, i64 26
  %33 = getelementptr inbounds nuw i8, ptr %3, i64 40
  %34 = load ptr, ptr %33, align 8
  %35 = select i1 %.not.i.i.i, ptr %34, ptr %32
  %36 = tail call noundef signext i8 @_ZNK6icu_7713UnicodeString8doEqualsEPKDsi(ptr noundef nonnull align 8 dereferenceable(64) %6, ptr noundef %35, i32 noundef %20)
  %.not17 = icmp eq i8 %36, 0
  br i1 %.not17, label %_ZNK6icu_7713UnicodeStringeqERKS0_.exit.thread, label %37

37:                                               ; preds = %10, %_ZNK6icu_7713UnicodeStringeqERKS0_.exit
  %38 = getelementptr inbounds nuw i8, ptr %0, i64 80
  %39 = getelementptr inbounds nuw i8, ptr %0, i64 88
  %40 = load i16, ptr %39, align 8, !tbaa !21
  %41 = and i16 %40, 1
  %.not.i9 = icmp eq i16 %41, 0
  br i1 %.not.i9, label %46, label %42

42:                                               ; preds = %37
  %43 = getelementptr inbounds nuw i8, ptr %3, i64 88
  %44 = load i16, ptr %43, align 8, !tbaa !21
  %45 = and i16 %44, 1
  %.not18 = icmp eq i16 %45, 0
  br i1 %.not18, label %_ZNK6icu_7713UnicodeStringeqERKS0_.exit.thread, label %69

46:                                               ; preds = %37
  %47 = icmp slt i16 %40, 0
  %48 = ashr i16 %40, 5
  %49 = sext i16 %48 to i32
  %50 = getelementptr inbounds nuw i8, ptr %0, i64 92
  %51 = load i32, ptr %50, align 4
  %52 = select i1 %47, i32 %51, i32 %49
  %53 = getelementptr inbounds nuw i8, ptr %3, i64 88
  %54 = load i16, ptr %53, align 8, !tbaa !21
  %55 = icmp slt i16 %54, 0
  %56 = ashr i16 %54, 5
  %57 = sext i16 %56 to i32
  %58 = getelementptr inbounds nuw i8, ptr %3, i64 92
  %59 = load i32, ptr %58, align 4
  %60 = select i1 %55, i32 %59, i32 %57
  %61 = and i16 %54, 1
  %.not9.i11 = icmp eq i16 %61, 0
  %62 = icmp eq i32 %52, %60
  %or.cond.i12 = and i1 %.not9.i11, %62
  br i1 %or.cond.i12, label %_ZNK6icu_7713UnicodeStringeqERKS0_.exit14, label %_ZNK6icu_7713UnicodeStringeqERKS0_.exit.thread

_ZNK6icu_7713UnicodeStringeqERKS0_.exit14:        ; preds = %46
  %63 = and i16 %54, 2
  %.not.i.i.i13 = icmp eq i16 %63, 0
  %64 = getelementptr inbounds nuw i8, ptr %3, i64 90
  %65 = getelementptr inbounds nuw i8, ptr %3, i64 104
  %66 = load ptr, ptr %65, align 8
  %67 = select i1 %.not.i.i.i13, ptr %66, ptr %64
  %68 = tail call noundef signext i8 @_ZNK6icu_7713UnicodeString8doEqualsEPKDsi(ptr noundef nonnull align 8 dereferenceable(64) %38, ptr noundef %67, i32 noundef %52)
  %.not19 = icmp eq i8 %68, 0
  br i1 %.not19, label %_ZNK6icu_7713UnicodeStringeqERKS0_.exit.thread, label %69

69:                                               ; preds = %42, %_ZNK6icu_7713UnicodeStringeqERKS0_.exit14
  %70 = getelementptr inbounds nuw i8, ptr %0, i64 144
  %71 = getelementptr inbounds nuw i8, ptr %3, i64 144
  %72 = load i8, ptr %70, align 8, !tbaa !32
  %73 = load i8, ptr %71, align 1, !tbaa !32
  %74 = icmp eq i8 %72, %73
  br i1 %74, label %75, label %_ZNK6icu_7713UnicodeStringeqERKS0_.exit.thread

75:                                               ; preds = %69
  %76 = getelementptr inbounds nuw i8, ptr %0, i64 145
  %77 = load i8, ptr %76, align 1, !tbaa !22, !range !30, !noundef !31
  %78 = getelementptr inbounds nuw i8, ptr %3, i64 145
  %79 = load i8, ptr %78, align 1, !tbaa !22, !range !30, !noundef !31
  %80 = icmp eq i8 %77, %79
  br label %_ZNK6icu_7713UnicodeStringeqERKS0_.exit.thread

_ZNK6icu_7713UnicodeStringeqERKS0_.exit.thread:   ; preds = %46, %14, %42, %10, %_ZNK6icu_7713UnicodeStringeqERKS0_.exit, %_ZNK6icu_7713UnicodeStringeqERKS0_.exit14, %69, %75, %2
  %.0 = phi i1 [ false, %2 ], [ false, %69 ], [ false, %_ZNK6icu_7713UnicodeStringeqERKS0_.exit14 ], [ false, %_ZNK6icu_7713UnicodeStringeqERKS0_.exit ], [ %80, %75 ], [ false, %10 ], [ false, %42 ], [ false, %14 ], [ false, %46 ]
  ret i1 %.0
}